; Function Attrs: mustprogress nofree norecurse nounwind willreturn uwtable
define void @_ZNK7rocksdb15BlockBasedTable18GetTablePropertiesEv(ptr noalias nocapture writeonly sret(%"class.std::shared_ptr.46") align 8 %agg.result, ptr nocapture noundef nonnull readonly align 8 dereferenceable(24) %this) unnamed_addr #13 align 2 personality ptr @__gxx_personality_v0 {
entry:
  %rep_ = getelementptr inbounds i8, ptr %this, i64 8
  %0 = load ptr, ptr %rep_, align 8
  %table_properties = getelementptr inbounds i8, ptr %0, i64 480
  %1 = load <2 x ptr>, ptr %table_properties, align 8
  store <2 x ptr> %1, ptr %agg.result, align 8
  %2 = extractelement <2 x ptr> %1, i64 1
  %cmp.not.i.i.i = icmp eq ptr %2, null
  br i1 %cmp.not.i.i.i, label %_ZNSt10shared_ptrIKN7rocksdb15TablePropertiesEEC2ERKS3_.exit, label %if.then.i.i.i

if.then.i.i.i:                                    ; preds = %entry
  %_M_use_count.i.i.i.i = getelementptr inbounds i8, ptr %2, i64 8
  %3 = load i8, ptr @__libc_single_threaded, align 1
  %tobool.i.i.not.i.i.i.i = icmp eq i8 %3, 0
  br i1 %tobool.i.i.not.i.i.i.i, label %if.else.i.i.i.i.i, label %if.then.i.i.i.i.i

if.then.i.i.i.i.i:                                ; preds = %if.then.i.i.i
  %4 = load i32, ptr %_M_use_count.i.i.i.i, align 4
  %add.i.i.i.i.i = add nsw i32 %4, 1
  store i32 %add.i.i.i.i.i, ptr %_M_use_count.i.i.i.i, align 4
  br label %_ZNSt10shared_ptrIKN7rocksdb15TablePropertiesEEC2ERKS3_.exit

if.else.i.i.i.i.i:                                ; preds = %if.then.i.i.i
  %5 = atomicrmw volatile add ptr %_M_use_count.i.i.i.i, i32 1 acq_rel, align 4
  br label %_ZNSt10shared_ptrIKN7rocksdb15TablePropertiesEEC2ERKS3_.exit

_ZNSt10shared_ptrIKN7rocksdb15TablePropertiesEEC2ERKS3_.exit: ; preds = %entry, %if.then.i.i.i.i.i, %if.else.i.i.i.i.i
  ret void
}